target datalayout = "e-m:e-p270:32:32-p271:32:32-p272:64:64-i64:64-i128:128-f80:128-n8:16:32:64-S128"
target triple = "x86_64-pc-linux-gnu"

%struct.Abc_ShaMan_t_ = type { i32, i32, ptr, ptr, ptr, i32, i32, i32 }
%struct.Vec_Int_t_ = type { i32, i32, ptr }

; Function Attrs: inlinehint nounwind uwtable
define internal ptr @Vec_IntAlloc(i32 noundef %0) #3 {
  %2 = alloca i32, align 4
  %3 = alloca ptr, align 8
  store i32 %0, ptr %2, align 4, !tbaa !16
  call void @llvm.lifetime.start.p0(i64 8, ptr %3) #9
  %4 = call noalias ptr @malloc(i64 noundef 16) #11
  store ptr %4, ptr %3, align 8, !tbaa !17
  %5 = load i32, ptr %2, align 4, !tbaa !16
  %6 = icmp sgt i32 %5, 0
  br i1 %6, label %7, label %11

7:                                                ; preds = %1
  %8 = load i32, ptr %2, align 4, !tbaa !16
  %9 = icmp slt i32 %8, 16
  br i1 %9, label %10, label %11

10:                                               ; preds = %7
  store i32 16, ptr %2, align 4, !tbaa !16
  br label %11

11:                                               ; preds = %10, %7, %1
  %12 = load ptr, ptr %3, align 8, !tbaa !17
  %13 = getelementptr inbounds nuw %struct.Vec_Int_t_, ptr %12, i32 0, i32 1
  store i32 0, ptr %13, align 4, !tbaa !18
  %14 = load i32, ptr %2, align 4, !tbaa !16
  %15 = load ptr, ptr %3, align 8, !tbaa !17
  %16 = getelementptr inbounds nuw %struct.Vec_Int_t_, ptr %15, i32 0, i32 0
  store i32 %14, ptr %16, align 8, !tbaa !21
  %17 = load ptr, ptr %3, align 8, !tbaa !17
  %18 = getelementptr inbounds nuw %struct.Vec_Int_t_, ptr %17, i32 0, i32 0
  %19 = load i32, ptr %18, align 8, !tbaa !21
  %20 = icmp ne i32 %19, 0
  br i1 %20, label %21, label %28

21:                                               ; preds = %11
  %22 = load ptr, ptr %3, align 8, !tbaa !17
  %23 = getelementptr inbounds nuw %struct.Vec_Int_t_, ptr %22, i32 0, i32 0
  %24 = load i32, ptr %23, align 8, !tbaa !21
  %25 = sext i32 %24 to i64
  %26 = mul i64 4, %25
  %27 = call noalias ptr @malloc(i64 noundef %26) #11
  br label %29

28:                                               ; preds = %11
  br label %29

29:                                               ; preds = %28, %21
  %30 = phi ptr [ %27, %21 ], [ null, %28 ]
  %31 = load ptr, ptr %3, align 8, !tbaa !17
  %32 = getelementptr inbounds nuw %struct.Vec_Int_t_, ptr %31, i32 0, i32 2
  store ptr %30, ptr %32, align 8, !tbaa !22
  %33 = load ptr, ptr %3, align 8, !tbaa !17
  call void @llvm.lifetime.end.p0(i64 8, ptr %3) #9
  ret ptr %33
}

; Function Attrs: nounwind uwtable
define ptr @Abc_ShaManStart(ptr noundef %0) #0 {
  %2 = alloca ptr, align 8
  %3 = alloca ptr, align 8
  store ptr %0, ptr %2, align 8, !tbaa !3
  call void @llvm.lifetime.start.p0(i64 8, ptr %3) #9
  %4 = call noalias ptr @calloc(i64 noundef 1, i64 noundef 48) #10
  store ptr %4, ptr %3, align 8, !tbaa !8
  %5 = load ptr, ptr %2, align 8, !tbaa !3
  %6 = load ptr, ptr %3, align 8, !tbaa !8
  %7 = getelementptr inbounds nuw %struct.Abc_ShaMan_t_, ptr %6, i32 0, i32 2
  store ptr %5, ptr %7, align 8, !tbaa !10
  %8 = call ptr @Vec_IntAlloc(i32 noundef 1000)
  %9 = load ptr, ptr %3, align 8, !tbaa !8
  %10 = getelementptr inbounds nuw %struct.Abc_ShaMan_t_, ptr %9, i32 0, i32 4
  store ptr %8, ptr %10, align 8, !tbaa !15
  %11 = load ptr, ptr %3, align 8, !tbaa !8
  call void @llvm.lifetime.end.p0(i64 8, ptr %3) #9
  ret ptr %11
}

; Function Attrs: nounwind uwtable
define ptr @Abc_NtkShareXor(ptr noundef %0, i32 noundef %1, i32 noundef %2, i32 noundef %3) #0 {
  %5 = alloca ptr, align 8
  %6 = alloca ptr, align 8
  %7 = alloca i32, align 4
  %8 = alloca i32, align 4
  %9 = alloca i32, align 4
  %10 = alloca ptr, align 8
  %11 = alloca ptr, align 8
  %12 = alloca i32, align 4
  store ptr %0, ptr %6, align 8, !tbaa !3
  store i32 %1, ptr %7, align 4, !tbaa !16
  store i32 %2, ptr %8, align 4, !tbaa !16
  store i32 %3, ptr %9, align 4, !tbaa !16
  call void @llvm.lifetime.start.p0(i64 8, ptr %10) #9
  call void @llvm.lifetime.start.p0(i64 8, ptr %11) #9
  %13 = load ptr, ptr %6, align 8, !tbaa !3
  %14 = call ptr @Abc_ShaManStart(ptr noundef %13)
  store ptr %14, ptr %11, align 8, !tbaa !8
  %15 = load i32, ptr %7, align 4, !tbaa !16
  %16 = load ptr, ptr %11, align 8, !tbaa !8
  %17 = getelementptr inbounds nuw %struct.Abc_ShaMan_t_, ptr %16, i32 0, i32 0
  store i32 %15, ptr %17, align 8, !tbaa !78
  %18 = load i32, ptr %9, align 4, !tbaa !16
  %19 = load ptr, ptr %11, align 8, !tbaa !8
  %20 = getelementptr inbounds nuw %struct.Abc_ShaMan_t_, ptr %19, i32 0, i32 1
  store i32 %18, ptr %20, align 4, !tbaa !128
  %21 = load ptr, ptr %11, align 8, !tbaa !8
  %22 = load i32, ptr %8, align 4, !tbaa !16
  call void @Abc_NtkTraverseSupers(ptr noundef %21, i32 noundef %22)
  %23 = load ptr, ptr %11, align 8, !tbaa !8
  %24 = getelementptr inbounds nuw %struct.Abc_ShaMan_t_, ptr %23, i32 0, i32 5
  %25 = load i32, ptr %24, align 8, !tbaa !87
  %26 = icmp slt i32 %25, 2
  br i1 %26, label %27, label %31

27:                                               ; preds = %4
  %28 = load ptr, ptr %11, align 8, !tbaa !8
  call void @Abc_ShaManStop(ptr noundef %28)
  %29 = load ptr, ptr %6, align 8, !tbaa !3
  %30 = call ptr @Abc_NtkDup(ptr noundef %29)
  store ptr %30, ptr %5, align 8
  store i32 1, ptr %12, align 4
  br label %49

31:                                               ; preds = %4
  %32 = load i32, ptr %9, align 4, !tbaa !16
  %33 = icmp ne i32 %32, 0
  br i1 %33, label %34, label %36

34:                                               ; preds = %31
  %35 = load ptr, ptr %11, align 8, !tbaa !8
  call void @Abc_NtkSharePrint(ptr noundef %35)
  br label %36

36:                                               ; preds = %34, %31
  %37 = load ptr, ptr %11, align 8, !tbaa !8
  %38 = load i32, ptr %8, align 4, !tbaa !16
  call void @Abc_NtkShareOptimize(ptr noundef %37, i32 noundef %38)
  %39 = load i32, ptr %9, align 4, !tbaa !16
  %40 = icmp ne i32 %39, 0
  br i1 %40, label %41, label %43

41:                                               ; preds = %36
  %42 = load ptr, ptr %11, align 8, !tbaa !8
  call void @Abc_NtkSharePrint(ptr noundef %42)
  br label %43

43:                                               ; preds = %41, %36
  %44 = load ptr, ptr %11, align 8, !tbaa !8
  %45 = load i32, ptr %8, align 4, !tbaa !16
  %46 = call ptr @Abc_NtkUpdateNetwork(ptr noundef %44, i32 noundef %45)
  store ptr %46, ptr %10, align 8, !tbaa !3
  %47 = load ptr, ptr %11, align 8, !tbaa !8
  call void @Abc_ShaManStop(ptr noundef %47)
  %48 = load ptr, ptr %10, align 8, !tbaa !3
  store ptr %48, ptr %5, align 8
  store i32 1, ptr %12, align 4
  br label %49

49:                                               ; preds = %43, %27
  call void @llvm.lifetime.end.p0(i64 8, ptr %11) #9
  call void @llvm.lifetime.end.p0(i64 8, ptr %10) #9
  %50 = load ptr, ptr %5, align 8
  ret ptr %50
}