; Function Attrs: nounwind uwtable
define ptr @Abc_NtkShareXor(ptr noundef %0, i32 noundef %1, i32 noundef %2, i32 noundef %3) local_unnamed_addr #3 {
  %5 = tail call noalias dereferenceable_or_null(48) ptr @calloc(i64 noundef 1, i64 noundef 48) #13
  %6 = getelementptr inbounds nuw i8, ptr %5, i64 8
  store ptr %0, ptr %6, align 8, !tbaa !3
  %7 = tail call noalias dereferenceable_or_null(16) ptr @malloc(i64 noundef 16) #14
  %8 = getelementptr inbounds nuw i8, ptr %7, i64 4
  store i32 0, ptr %8, align 4, !tbaa !12
  store i32 1000, ptr %7, align 8, !tbaa !15
  %9 = tail call noalias dereferenceable_or_null(4000) ptr @malloc(i64 noundef 4000) #14
  %10 = getelementptr inbounds nuw i8, ptr %7, i64 8
  store ptr %9, ptr %10, align 8, !tbaa !16
  %11 = getelementptr inbounds nuw i8, ptr %5, i64 24
  store ptr %7, ptr %11, align 8, !tbaa !17
  store i32 %1, ptr %5, align 8, !tbaa !69
  %12 = getelementptr inbounds nuw i8, ptr %5, i64 4
  store i32 %3, ptr %12, align 4, !tbaa !114
  tail call void @Abc_NtkTraverseSupers(ptr noundef nonnull %5, i32 noundef %2)
  %13 = getelementptr inbounds nuw i8, ptr %5, i64 32
  %14 = load i32, ptr %13, align 8, !tbaa !79
  %15 = icmp slt i32 %14, 2
  br i1 %15, label %16, label %18

16:                                               ; preds = %4
  tail call void @Abc_ShaManStop(ptr noundef nonnull %5)
  %17 = tail call ptr @Abc_NtkDup(ptr noundef %0) #15
  br label %22

18:                                               ; preds = %4
  %.not = icmp eq i32 %3, 0
  br i1 %.not, label %.critedge, label %19

19:                                               ; preds = %18
  tail call void @Abc_NtkSharePrint(ptr noundef nonnull %5)
  tail call void @Abc_NtkShareOptimize(ptr noundef nonnull %5, i32 noundef %2)
  tail call void @Abc_NtkSharePrint(ptr noundef nonnull %5)
  br label %20

.critedge:                                        ; preds = %18
  tail call void @Abc_NtkShareOptimize(ptr noundef nonnull %5, i32 noundef %2)
  br label %20

20:                                               ; preds = %.critedge, %19
  %21 = tail call ptr @Abc_NtkUpdateNetwork(ptr noundef nonnull %5, i32 noundef %2)
  tail call void @Abc_ShaManStop(ptr noundef nonnull %5)
  br label %22

22:                                               ; preds = %20, %16
  %.0 = phi ptr [ %17, %16 ], [ %21, %20 ]
  ret ptr %.0
}